target datalayout = "e-m:e-p270:32:32-p271:32:32-p272:64:64-i64:64-i128:128-f80:128-n8:16:32:64-S128"
target triple = "x86_64-pc-linux-gnu"

%"class.LIEF::PE::Debug" = type <{ %"class.LIEF::Object", i32, i32, i32, i16, i16, i32, i32, i32, [4 x i8] }>
%"class.LIEF::Object" = type { ptr }
%"struct.LIEF::PE::details::pe_debug" = type { i32, i32, i16, i16, i32, i32, i32, i32 }

; Function Attrs: mustprogress uwtable
define void @_ZN4LIEF2PE5DebugC2ERKNS0_7details8pe_debugE(ptr noundef nonnull align 8 dereferenceable(36) %0, ptr noundef nonnull align 1 dereferenceable(28) %1) unnamed_addr #3 align 2 {
  %3 = alloca ptr, align 8
  %4 = alloca ptr, align 8
  store ptr %0, ptr %3, align 8
  store ptr %1, ptr %4, align 8
  %5 = load ptr, ptr %3, align 8
  call void @_ZN4LIEF6ObjectC2Ev(ptr noundef nonnull align 8 dereferenceable(8) %5)
  store ptr getelementptr inbounds ({ [8 x ptr] }, ptr @_ZTVN4LIEF2PE5DebugE, i32 0, i32 0, i32 2), ptr %5, align 8
  %6 = getelementptr inbounds %"class.LIEF::PE::Debug", ptr %5, i32 0, i32 1
  %7 = load ptr, ptr %4, align 8
  %8 = getelementptr inbounds %"struct.LIEF::PE::details::pe_debug", ptr %7, i32 0, i32 4
  %9 = load i32, ptr %8, align 1
  store i32 %9, ptr %6, align 8
  %10 = getelementptr inbounds %"class.LIEF::PE::Debug", ptr %5, i32 0, i32 2
  %11 = load ptr, ptr %4, align 8
  %12 = getelementptr inbounds %"struct.LIEF::PE::details::pe_debug", ptr %11, i32 0, i32 0
  %13 = load i32, ptr %12, align 1
  store i32 %13, ptr %10, align 4
  %14 = getelementptr inbounds %"class.LIEF::PE::Debug", ptr %5, i32 0, i32 3
  %15 = load ptr, ptr %4, align 8
  %16 = getelementptr inbounds %"struct.LIEF::PE::details::pe_debug", ptr %15, i32 0, i32 1
  %17 = load i32, ptr %16, align 1
  store i32 %17, ptr %14, align 8
  %18 = getelementptr inbounds %"class.LIEF::PE::Debug", ptr %5, i32 0, i32 4
  %19 = load ptr, ptr %4, align 8
  %20 = getelementptr inbounds %"struct.LIEF::PE::details::pe_debug", ptr %19, i32 0, i32 2
  %21 = load i16, ptr %20, align 1
  store i16 %21, ptr %18, align 4
  %22 = getelementptr inbounds %"class.LIEF::PE::Debug", ptr %5, i32 0, i32 5
  %23 = load ptr, ptr %4, align 8
  %24 = getelementptr inbounds %"struct.LIEF::PE::details::pe_debug", ptr %23, i32 0, i32 3
  %25 = load i16, ptr %24, align 1
  store i16 %25, ptr %22, align 2
  %26 = getelementptr inbounds %"class.LIEF::PE::Debug", ptr %5, i32 0, i32 6
  %27 = load ptr, ptr %4, align 8
  %28 = getelementptr inbounds %"struct.LIEF::PE::details::pe_debug", ptr %27, i32 0, i32 5
  %29 = load i32, ptr %28, align 1
  store i32 %29, ptr %26, align 8
  %30 = getelementptr inbounds %"class.LIEF::PE::Debug", ptr %5, i32 0, i32 7
  %31 = load ptr, ptr %4, align 8
  %32 = getelementptr inbounds %"struct.LIEF::PE::details::pe_debug", ptr %31, i32 0, i32 6
  %33 = load i32, ptr %32, align 1
  store i32 %33, ptr %30, align 4
  %34 = getelementptr inbounds %"class.LIEF::PE::Debug", ptr %5, i32 0, i32 8
  %35 = load ptr, ptr %4, align 8
  %36 = getelementptr inbounds %"struct.LIEF::PE::details::pe_debug", ptr %35, i32 0, i32 7
  %37 = load i32, ptr %36, align 1
  store i32 %37, ptr %34, align 8
  ret void
}