; Function Attrs: mustprogress uwtable
define void @_ZN4LIEF2PE5DebugC2ERKNS0_7details8pe_debugE(ptr noundef nonnull align 8 dereferenceable(36) %0, ptr nocapture noundef nonnull readonly align 1 dereferenceable(28) %1) unnamed_addr #3 align 2 {
  tail call void @_ZN4LIEF6ObjectC2Ev(ptr noundef nonnull align 8 dereferenceable(8) %0)
  store ptr getelementptr inbounds ({ [8 x ptr] }, ptr @_ZTVN4LIEF2PE5DebugE, i64 0, i32 0, i64 2), ptr %0, align 8
  %3 = getelementptr inbounds i8, ptr %0, i64 8
  %4 = getelementptr inbounds i8, ptr %1, i64 12
  %5 = load i32, ptr %4, align 1
  store i32 %5, ptr %3, align 8
  %6 = getelementptr inbounds i8, ptr %0, i64 12
  %7 = load i32, ptr %1, align 1
  store i32 %7, ptr %6, align 4
  %8 = getelementptr inbounds i8, ptr %0, i64 16
  %9 = getelementptr inbounds i8, ptr %1, i64 4
  %10 = load i32, ptr %9, align 1
  store i32 %10, ptr %8, align 8
  %11 = getelementptr inbounds i8, ptr %0, i64 20
  %12 = getelementptr inbounds i8, ptr %1, i64 8
  %13 = load i16, ptr %12, align 1
  store i16 %13, ptr %11, align 4
  %14 = getelementptr inbounds i8, ptr %0, i64 22
  %15 = getelementptr inbounds i8, ptr %1, i64 10
  %16 = load i16, ptr %15, align 1
  store i16 %16, ptr %14, align 2
  %17 = getelementptr inbounds i8, ptr %0, i64 24
  %18 = getelementptr inbounds i8, ptr %1, i64 16
  %19 = load i32, ptr %18, align 1
  store i32 %19, ptr %17, align 8
  %20 = getelementptr inbounds i8, ptr %0, i64 28
  %21 = getelementptr inbounds i8, ptr %1, i64 20
  %22 = load i32, ptr %21, align 1
  store i32 %22, ptr %20, align 4
  %23 = getelementptr inbounds i8, ptr %0, i64 32
  %24 = getelementptr inbounds i8, ptr %1, i64 24
  %25 = load i32, ptr %24, align 1
  store i32 %25, ptr %23, align 8
  ret void
}